target datalayout = "e-m:e-p270:32:32-p271:32:32-p272:64:64-i64:64-i128:128-f80:128-n8:16:32:64-S128"
target triple = "x86_64-pc-linux-gnu"

%struct.H5O_linfo_t = type { i8, i8, i64, i64, i64, i64, i64 }
%struct.H5O_loc_t = type { ptr, i64, i8 }

@H5G_init_g = external global i8, align 1
@H5_libterm_g = external global i8, align 1
@.str = private unnamed_addr constant [100 x i8] c"generated/home/dtcxzyw/WorkSpace/Projects/compilers/llvm-opt-benchmark/bench/hdf5/hdf5/src/H5Gobj.c\00", align 1
@H5E_SYM_g = external global i64, align 8
@H5E_CANTGET_g = external global i64, align 8
@H5E_BADVALUE_g = external global i64, align 8
@.str.19 = private unnamed_addr constant [34 x i8] c"can't check for link info message\00", align 1
@H5E_NOTFOUND_g = external global i64, align 8
@__func__.H5G__obj_iterate = private unnamed_addr constant [17 x i8] c"H5G__obj_iterate\00", align 1
@H5E_ARGS_g = external global i64, align 8
@.str.34 = private unnamed_addr constant [19 x i8] c"index out of bound\00", align 1
@.str.35 = private unnamed_addr constant [46 x i8] c"creation order not tracked for links in group\00", align 1
@H5E_BADITER_g = external global i64, align 8
@.str.36 = private unnamed_addr constant [31 x i8] c"can't iterate over dense links\00", align 1
@.str.37 = private unnamed_addr constant [33 x i8] c"can't iterate over compact links\00", align 1
@.str.38 = private unnamed_addr constant [33 x i8] c"no creation order index to query\00", align 1
@.str.39 = private unnamed_addr constant [32 x i8] c"can't iterate over symbol table\00", align 1

; Function Attrs: nounwind uwtable
define i32 @H5G__obj_iterate(ptr noundef %0, i32 noundef %1, i32 noundef %2, i64 noundef %3, ptr noundef %4, ptr noundef %5, ptr noundef %6) #0 {
  %8 = alloca ptr, align 8
  %9 = alloca i32, align 4
  %10 = alloca i32, align 4
  %11 = alloca i64, align 8
  %12 = alloca ptr, align 8
  %13 = alloca ptr, align 8
  %14 = alloca ptr, align 8
  %15 = alloca %struct.H5O_linfo_t, align 8
  %16 = alloca i32, align 4
  %17 = alloca i32, align 4
  %18 = alloca i64, align 8
  %19 = alloca i8, align 1
  store ptr %0, ptr %8, align 8, !tbaa !10
  store i32 %1, ptr %9, align 4, !tbaa !12
  store i32 %2, ptr %10, align 4, !tbaa !12
  store i64 %3, ptr %11, align 8, !tbaa !23
  store ptr %4, ptr %12, align 8, !tbaa !74
  store ptr %5, ptr %13, align 8, !tbaa !64
  store ptr %6, ptr %14, align 8, !tbaa !64
  call void @llvm.lifetime.start.p0(i64 48, ptr %15) #6
  call void @llvm.lifetime.start.p0(i64 4, ptr %16) #6
  call void @llvm.lifetime.start.p0(i64 4, ptr %17) #6
  store i32 -1, ptr %17, align 4, !tbaa !12
  call void @llvm.lifetime.start.p0(i64 8, ptr %18) #6
  store i64 -1, ptr %18, align 8, !tbaa !23
  call void @llvm.lifetime.start.p0(i64 1, ptr %19) #6
  store i8 0, ptr %19, align 1, !tbaa !14
  %20 = load ptr, ptr %8, align 8, !tbaa !10
  %21 = getelementptr inbounds nuw %struct.H5O_loc_t, ptr %20, i32 0, i32 1
  %22 = load i64, ptr %21, align 8, !tbaa !56
  call void @H5AC_tag(i64 noundef %22, ptr noundef %18)
  %23 = load i8, ptr @H5G_init_g, align 1, !tbaa !14, !range !16, !noundef !17
  %24 = trunc i8 %23 to i1
  br i1 %24, label %29, label %25

25:                                               ; preds = %7
  %26 = load i8, ptr @H5_libterm_g, align 1, !tbaa !14, !range !16, !noundef !17
  %27 = trunc i8 %26 to i1
  %28 = xor i1 %27, true
  br label %29

29:                                               ; preds = %25, %7
  %30 = phi i1 [ true, %7 ], [ %28, %25 ]
  %31 = xor i1 %30, true
  %32 = xor i1 %31, true
  %33 = zext i1 %32 to i32
  %34 = sext i32 %33 to i64
  %35 = call i64 @llvm.expect.i64(i64 %34, i64 1)
  %36 = icmp ne i64 %35, 0
  br i1 %36, label %37, label %237

37:                                               ; preds = %29
  %38 = load ptr, ptr %8, align 8, !tbaa !10
  %39 = call i32 @H5G__obj_get_linfo(ptr noundef %38, ptr noundef %15)
  store i32 %39, ptr %16, align 4, !tbaa !12
  %40 = icmp slt i32 %39, 0
  br i1 %40, label %41, label %60

41:                                               ; preds = %37
  br label %42

42:                                               ; preds = %41
  br label %43

43:                                               ; preds = %42
  br label %44

44:                                               ; preds = %43
  %45 = load i64, ptr @H5E_SYM_g, align 8, !tbaa !23
  %46 = load i64, ptr @H5E_CANTGET_g, align 8, !tbaa !23
  %47 = call i32 (ptr, ptr, i32, i64, i64, ptr, ...) @H5E_printf_stack(ptr noundef @.str, ptr noundef @__func__.H5G__obj_iterate, i32 noundef 632, i64 noundef %45, i64 noundef %46, ptr noundef @.str.19)
  br label %48

48:                                               ; preds = %44
  br label %49

49:                                               ; preds = %48
  store i8 1, ptr %19, align 1, !tbaa !14
  %50 = load i8, ptr %19, align 1, !tbaa !14, !range !16, !noundef !17
  %51 = trunc i8 %50 to i1
  %52 = zext i1 %51 to i8
  store i8 %52, ptr %19, align 1, !tbaa !14
  br label %53

53:                                               ; preds = %49
  br label %54

54:                                               ; preds = %53
  br label %55

55:                                               ; preds = %54
  store i32 -1, ptr %17, align 4, !tbaa !12
  br label %236

56:                                               ; No predecessors!
  br label %57

57:                                               ; preds = %56
  br label %58

58:                                               ; preds = %57
  br label %59

59:                                               ; preds = %58
  br label %60

60:                                               ; preds = %59, %37
  %61 = load i32, ptr %16, align 4, !tbaa !12
  %62 = icmp ne i32 %61, 0
  br i1 %62, label %63, label %184

63:                                               ; preds = %60
  %64 = load i64, ptr %11, align 8, !tbaa !23
  %65 = icmp ugt i64 %64, 0
  br i1 %65, label %66, label %90

66:                                               ; preds = %63
  %67 = load i64, ptr %11, align 8, !tbaa !23
  %68 = getelementptr inbounds nuw %struct.H5O_linfo_t, ptr %15, i32 0, i32 4
  %69 = load i64, ptr %68, align 8, !tbaa !58
  %70 = icmp uge i64 %67, %69
  br i1 %70, label %71, label %90

71:                                               ; preds = %66
  br label %72

72:                                               ; preds = %71
  br label %73

73:                                               ; preds = %72
  br label %74

74:                                               ; preds = %73
  %75 = load i64, ptr @H5E_ARGS_g, align 8, !tbaa !23
  %76 = load i64, ptr @H5E_BADVALUE_g, align 8, !tbaa !23
  %77 = call i32 (ptr, ptr, i32, i64, i64, ptr, ...) @H5E_printf_stack(ptr noundef @.str, ptr noundef @__func__.H5G__obj_iterate, i32 noundef 636, i64 noundef %75, i64 noundef %76, ptr noundef @.str.34)
  br label %78

78:                                               ; preds = %74
  br label %79

79:                                               ; preds = %78
  store i8 1, ptr %19, align 1, !tbaa !14
  %80 = load i8, ptr %19, align 1, !tbaa !14, !range !16, !noundef !17
  %81 = trunc i8 %80 to i1
  %82 = zext i1 %81 to i8
  store i8 %82, ptr %19, align 1, !tbaa !14
  br label %83

83:                                               ; preds = %79
  br label %84

84:                                               ; preds = %83
  br label %85

85:                                               ; preds = %84
  store i32 -1, ptr %17, align 4, !tbaa !12
  br label %236

86:                                               ; No predecessors!
  br label %87

87:                                               ; preds = %86
  br label %88

88:                                               ; preds = %87
  br label %89

89:                                               ; preds = %88
  br label %90

90:                                               ; preds = %89, %66, %63
  %91 = load i32, ptr %9, align 4, !tbaa !12
  %92 = icmp eq i32 %91, 1
  br i1 %92, label %93, label %117

93:                                               ; preds = %90
  %94 = getelementptr inbounds nuw %struct.H5O_linfo_t, ptr %15, i32 0, i32 0
  %95 = load i8, ptr %94, align 8, !tbaa !30, !range !16, !noundef !17
  %96 = trunc i8 %95 to i1
  br i1 %96, label %116, label %97

97:                                               ; preds = %93
  br label %98

98:                                               ; preds = %97
  br label %99

99:                                               ; preds = %98
  br label %100

100:                                              ; preds = %99
  %101 = load i64, ptr @H5E_SYM_g, align 8, !tbaa !23
  %102 = load i64, ptr @H5E_NOTFOUND_g, align 8, !tbaa !23
  %103 = call i32 (ptr, ptr, i32, i64, i64, ptr, ...) @H5E_printf_stack(ptr noundef @.str, ptr noundef @__func__.H5G__obj_iterate, i32 noundef 642, i64 noundef %101, i64 noundef %102, ptr noundef @.str.35)
  br label %104

104:                                              ; preds = %100
  br label %105

105:                                              ; preds = %104
  store i8 1, ptr %19, align 1, !tbaa !14
  %106 = load i8, ptr %19, align 1, !tbaa !14, !range !16, !noundef !17
  %107 = trunc i8 %106 to i1
  %108 = zext i1 %107 to i8
  store i8 %108, ptr %19, align 1, !tbaa !14
  br label %109

109:                                              ; preds = %105
  br label %110

110:                                              ; preds = %109
  br label %111

111:                                              ; preds = %110
  store i32 -1, ptr %17, align 4, !tbaa !12
  br label %236

112:                                              ; No predecessors!
  br label %113

113:                                              ; preds = %112
  br label %114

114:                                              ; preds = %113
  br label %115

115:                                              ; preds = %114
  br label %116

116:                                              ; preds = %115, %93
  br label %117

117:                                              ; preds = %116, %90
  %118 = getelementptr inbounds nuw %struct.H5O_linfo_t, ptr %15, i32 0, i32 5
  %119 = load i64, ptr %118, align 8, !tbaa !59
  %120 = icmp ne i64 %119, -1
  br i1 %120, label %121, label %153

121:                                              ; preds = %117
  %122 = load ptr, ptr %8, align 8, !tbaa !10
  %123 = getelementptr inbounds nuw %struct.H5O_loc_t, ptr %122, i32 0, i32 0
  %124 = load ptr, ptr %123, align 8, !tbaa !60
  %125 = load i32, ptr %9, align 4, !tbaa !12
  %126 = load i32, ptr %10, align 4, !tbaa !12
  %127 = load i64, ptr %11, align 8, !tbaa !23
  %128 = load ptr, ptr %12, align 8, !tbaa !74
  %129 = load ptr, ptr %13, align 8, !tbaa !64
  %130 = load ptr, ptr %14, align 8, !tbaa !64
  %131 = call i32 @H5G__dense_iterate(ptr noundef %124, ptr noundef %15, i32 noundef %125, i32 noundef %126, i64 noundef %127, ptr noundef %128, ptr noundef %129, ptr noundef %130)
  store i32 %131, ptr %17, align 4, !tbaa !12
  %132 = icmp slt i32 %131, 0
  br i1 %132, label %133, label %152

133:                                              ; preds = %121
  br label %134

134:                                              ; preds = %133
  br label %135

135:                                              ; preds = %134
  br label %136

136:                                              ; preds = %135
  %137 = load i64, ptr @H5E_SYM_g, align 8, !tbaa !23
  %138 = load i64, ptr @H5E_BADITER_g, align 8, !tbaa !23
  %139 = call i32 (ptr, ptr, i32, i64, i64, ptr, ...) @H5E_printf_stack(ptr noundef @.str, ptr noundef @__func__.H5G__obj_iterate, i32 noundef 649, i64 noundef %137, i64 noundef %138, ptr noundef @.str.36)
  br label %140

140:                                              ; preds = %136
  br label %141

141:                                              ; preds = %140
  store i8 1, ptr %19, align 1, !tbaa !14
  %142 = load i8, ptr %19, align 1, !tbaa !14, !range !16, !noundef !17
  %143 = trunc i8 %142 to i1
  %144 = zext i1 %143 to i8
  store i8 %144, ptr %19, align 1, !tbaa !14
  br label %145

145:                                              ; preds = %141
  br label %146

146:                                              ; preds = %145
  br label %147

147:                                              ; preds = %146
  store i32 -1, ptr %17, align 4, !tbaa !12
  br label %236

148:                                              ; No predecessors!
  br label %149

149:                                              ; preds = %148
  br label %150

150:                                              ; preds = %149
  br label %151

151:                                              ; preds = %150
  br label %152

152:                                              ; preds = %151, %121
  br label %183

153:                                              ; preds = %117
  %154 = load ptr, ptr %8, align 8, !tbaa !10
  %155 = load i32, ptr %9, align 4, !tbaa !12
  %156 = load i32, ptr %10, align 4, !tbaa !12
  %157 = load i64, ptr %11, align 8, !tbaa !23
  %158 = load ptr, ptr %12, align 8, !tbaa !74
  %159 = load ptr, ptr %13, align 8, !tbaa !64
  %160 = load ptr, ptr %14, align 8, !tbaa !64
  %161 = call i32 @H5G__compact_iterate(ptr noundef %154, ptr noundef %15, i32 noundef %155, i32 noundef %156, i64 noundef %157, ptr noundef %158, ptr noundef %159, ptr noundef %160)
  store i32 %161, ptr %17, align 4, !tbaa !12
  %162 = icmp slt i32 %161, 0
  br i1 %162, label %163, label %182

163:                                              ; preds = %153
  br label %164

164:                                              ; preds = %163
  br label %165

165:                                              ; preds = %164
  br label %166

166:                                              ; preds = %165
  %167 = load i64, ptr @H5E_SYM_g, align 8, !tbaa !23
  %168 = load i64, ptr @H5E_BADITER_g, align 8, !tbaa !23
  %169 = call i32 (ptr, ptr, i32, i64, i64, ptr, ...) @H5E_printf_stack(ptr noundef @.str, ptr noundef @__func__.H5G__obj_iterate, i32 noundef 655, i64 noundef %167, i64 noundef %168, ptr noundef @.str.37)
  br label %170

170:                                              ; preds = %166
  br label %171

171:                                              ; preds = %170
  store i8 1, ptr %19, align 1, !tbaa !14
  %172 = load i8, ptr %19, align 1, !tbaa !14, !range !16, !noundef !17
  %173 = trunc i8 %172 to i1
  %174 = zext i1 %173 to i8
  store i8 %174, ptr %19, align 1, !tbaa !14
  br label %175

175:                                              ; preds = %171
  br label %176

176:                                              ; preds = %175
  br label %177

177:                                              ; preds = %176
  store i32 -1, ptr %17, align 4, !tbaa !12
  br label %236

178:                                              ; No predecessors!
  br label %179

179:                                              ; preds = %178
  br label %180

180:                                              ; preds = %179
  br label %181

181:                                              ; preds = %180
  br label %182

182:                                              ; preds = %181, %153
  br label %183

183:                                              ; preds = %182, %152
  br label %235

184:                                              ; preds = %60
  %185 = load i32, ptr %9, align 4, !tbaa !12
  %186 = icmp ne i32 %185, 0
  br i1 %186, label %187, label %206

187:                                              ; preds = %184
  br label %188

188:                                              ; preds = %187
  br label %189

189:                                              ; preds = %188
  br label %190

190:                                              ; preds = %189
  %191 = load i64, ptr @H5E_SYM_g, align 8, !tbaa !23
  %192 = load i64, ptr @H5E_BADVALUE_g, align 8, !tbaa !23
  %193 = call i32 (ptr, ptr, i32, i64, i64, ptr, ...) @H5E_printf_stack(ptr noundef @.str, ptr noundef @__func__.H5G__obj_iterate, i32 noundef 661, i64 noundef %191, i64 noundef %192, ptr noundef @.str.38)
  br label %194

194:                                              ; preds = %190
  br label %195

195:                                              ; preds = %194
  store i8 1, ptr %19, align 1, !tbaa !14
  %196 = load i8, ptr %19, align 1, !tbaa !14, !range !16, !noundef !17
  %197 = trunc i8 %196 to i1
  %198 = zext i1 %197 to i8
  store i8 %198, ptr %19, align 1, !tbaa !14
  br label %199

199:                                              ; preds = %195
  br label %200

200:                                              ; preds = %199
  br label %201

201:                                              ; preds = %200
  store i32 -1, ptr %17, align 4, !tbaa !12
  br label %236

202:                                              ; No predecessors!
  br label %203

203:                                              ; preds = %202
  br label %204

204:                                              ; preds = %203
  br label %205

205:                                              ; preds = %204
  br label %206

206:                                              ; preds = %205, %184
  %207 = load ptr, ptr %8, align 8, !tbaa !10
  %208 = load i32, ptr %10, align 4, !tbaa !12
  %209 = load i64, ptr %11, align 8, !tbaa !23
  %210 = load ptr, ptr %12, align 8, !tbaa !74
  %211 = load ptr, ptr %13, align 8, !tbaa !64
  %212 = load ptr, ptr %14, align 8, !tbaa !64
  %213 = call i32 @H5G__stab_iterate(ptr noundef %207, i32 noundef %208, i64 noundef %209, ptr noundef %210, ptr noundef %211, ptr noundef %212)
  store i32 %213, ptr %17, align 4, !tbaa !12
  %214 = icmp slt i32 %213, 0
  br i1 %214, label %215, label %234

215:                                              ; preds = %206
  br label %216

216:                                              ; preds = %215
  br label %217

217:                                              ; preds = %216
  br label %218

218:                                              ; preds = %217
  %219 = load i64, ptr @H5E_SYM_g, align 8, !tbaa !23
  %220 = load i64, ptr @H5E_BADITER_g, align 8, !tbaa !23
  %221 = call i32 (ptr, ptr, i32, i64, i64, ptr, ...) @H5E_printf_stack(ptr noundef @.str, ptr noundef @__func__.H5G__obj_iterate, i32 noundef 665, i64 noundef %219, i64 noundef %220, ptr noundef @.str.39)
  br label %222

222:                                              ; preds = %218
  br label %223

223:                                              ; preds = %222
  store i8 1, ptr %19, align 1, !tbaa !14
  %224 = load i8, ptr %19, align 1, !tbaa !14, !range !16, !noundef !17
  %225 = trunc i8 %224 to i1
  %226 = zext i1 %225 to i8
  store i8 %226, ptr %19, align 1, !tbaa !14
  br label %227

227:                                              ; preds = %223
  br label %228

228:                                              ; preds = %227
  br label %229

229:                                              ; preds = %228
  store i32 -1, ptr %17, align 4, !tbaa !12
  br label %236

230:                                              ; No predecessors!
  br label %231

231:                                              ; preds = %230
  br label %232

232:                                              ; preds = %231
  br label %233

233:                                              ; preds = %232
  br label %234

234:                                              ; preds = %233, %206
  br label %235

235:                                              ; preds = %234, %183
  br label %236

236:                                              ; preds = %235, %229, %201, %177, %147, %111, %85, %55
  br label %237

237:                                              ; preds = %236, %29
  %238 = load i64, ptr %18, align 8, !tbaa !23
  call void @H5AC_tag(i64 noundef %238, ptr noundef null)
  %239 = load i32, ptr %17, align 4, !tbaa !12
  call void @llvm.lifetime.end.p0(i64 1, ptr %19) #6
  call void @llvm.lifetime.end.p0(i64 8, ptr %18) #6
  call void @llvm.lifetime.end.p0(i64 4, ptr %17) #6
  call void @llvm.lifetime.end.p0(i64 4, ptr %16) #6
  call void @llvm.lifetime.end.p0(i64 48, ptr %15) #6
  ret i32 %239
}