; Function Attrs: nounwind uwtable
define range(i32 -1, -2147483648) i32 @H5G__obj_iterate(ptr noundef %0, i32 noundef %1, i32 noundef %2, i64 noundef %3, ptr noundef %4, ptr noundef %5, ptr noundef %6) local_unnamed_addr #0 {
  %8 = alloca %struct.H5O_linfo_t, align 8
  %9 = alloca i64, align 8
  call void @llvm.lifetime.start.p0(i64 48, ptr nonnull %8) #5
  call void @llvm.lifetime.start.p0(i64 8, ptr nonnull %9) #5
  store i64 -1, ptr %9, align 8, !tbaa !14
  %10 = getelementptr inbounds nuw i8, ptr %0, i64 8
  %11 = load i64, ptr %10, align 8, !tbaa !41
  call void @H5AC_tag(i64 noundef %11, ptr noundef nonnull %9) #5
  %12 = load i8, ptr @H5G_init_g, align 1, !tbaa !3, !range !7, !noundef !8
  %13 = trunc nuw i8 %12 to i1
  %14 = load i8, ptr @H5_libterm_g, align 1, !range !7
  %15 = trunc nuw i8 %14 to i1
  %16 = xor i1 %15, true
  %17 = select i1 %13, i1 true, i1 %16
  br i1 %17, label %18, label %72, !prof !9

18:                                               ; preds = %7
  %19 = call i32 @H5G__obj_get_linfo(ptr noundef nonnull %0, ptr noundef nonnull %8)
  %20 = icmp slt i32 %19, 0
  br i1 %20, label %21, label %25

21:                                               ; preds = %18
  %22 = load i64, ptr @H5E_SYM_g, align 8, !tbaa !14
  %23 = load i64, ptr @H5E_CANTGET_g, align 8, !tbaa !14
  %24 = call i32 (ptr, ptr, i32, i64, i64, ptr, ...) @H5E_printf_stack(ptr noundef nonnull @.str, ptr noundef nonnull @__func__.H5G__obj_iterate, i32 noundef 632, i64 noundef %22, i64 noundef %23, ptr noundef nonnull @.str.19) #5
  br label %72

25:                                               ; preds = %18
  %.not = icmp eq i32 %19, 0
  br i1 %.not, label %60, label %26

26:                                               ; preds = %25
  %.not40 = icmp eq i64 %3, 0
  %27 = getelementptr inbounds nuw i8, ptr %8, i64 24
  %28 = load i64, ptr %27, align 8
  %.not41 = icmp ult i64 %3, %28
  %or.cond = select i1 %.not40, i1 true, i1 %.not41
  br i1 %or.cond, label %33, label %29

29:                                               ; preds = %26
  %30 = load i64, ptr @H5E_ARGS_g, align 8, !tbaa !14
  %31 = load i64, ptr @H5E_BADVALUE_g, align 8, !tbaa !14
  %32 = call i32 (ptr, ptr, i32, i64, i64, ptr, ...) @H5E_printf_stack(ptr noundef nonnull @.str, ptr noundef nonnull @__func__.H5G__obj_iterate, i32 noundef 636, i64 noundef %30, i64 noundef %31, ptr noundef nonnull @.str.34) #5
  br label %72

33:                                               ; preds = %26
  %34 = icmp eq i32 %1, 1
  br i1 %34, label %35, label %42

35:                                               ; preds = %33
  %36 = load i8, ptr %8, align 8, !tbaa !15, !range !7, !noundef !8
  %37 = trunc nuw i8 %36 to i1
  br i1 %37, label %42, label %38

38:                                               ; preds = %35
  %39 = load i64, ptr @H5E_SYM_g, align 8, !tbaa !14
  %40 = load i64, ptr @H5E_NOTFOUND_g, align 8, !tbaa !14
  %41 = call i32 (ptr, ptr, i32, i64, i64, ptr, ...) @H5E_printf_stack(ptr noundef nonnull @.str, ptr noundef nonnull @__func__.H5G__obj_iterate, i32 noundef 642, i64 noundef %39, i64 noundef %40, ptr noundef nonnull @.str.35) #5
  br label %72

42:                                               ; preds = %35, %33
  %43 = getelementptr inbounds nuw i8, ptr %8, i64 32
  %44 = load i64, ptr %43, align 8, !tbaa !44
  %.not42 = icmp eq i64 %44, -1
  br i1 %.not42, label %53, label %45

45:                                               ; preds = %42
  %46 = load ptr, ptr %0, align 8, !tbaa !45
  %47 = call i32 @H5G__dense_iterate(ptr noundef %46, ptr noundef nonnull %8, i32 noundef %1, i32 noundef %2, i64 noundef %3, ptr noundef %4, ptr noundef %5, ptr noundef %6) #5
  %48 = icmp slt i32 %47, 0
  br i1 %48, label %49, label %72

49:                                               ; preds = %45
  %50 = load i64, ptr @H5E_SYM_g, align 8, !tbaa !14
  %51 = load i64, ptr @H5E_BADITER_g, align 8, !tbaa !14
  %52 = call i32 (ptr, ptr, i32, i64, i64, ptr, ...) @H5E_printf_stack(ptr noundef nonnull @.str, ptr noundef nonnull @__func__.H5G__obj_iterate, i32 noundef 649, i64 noundef %50, i64 noundef %51, ptr noundef nonnull @.str.36) #5
  br label %72

53:                                               ; preds = %42
  %54 = call i32 @H5G__compact_iterate(ptr noundef nonnull %0, ptr noundef nonnull %8, i32 noundef %1, i32 noundef %2, i64 noundef %3, ptr noundef %4, ptr noundef %5, ptr noundef %6) #5
  %55 = icmp slt i32 %54, 0
  br i1 %55, label %56, label %72

56:                                               ; preds = %53
  %57 = load i64, ptr @H5E_SYM_g, align 8, !tbaa !14
  %58 = load i64, ptr @H5E_BADITER_g, align 8, !tbaa !14
  %59 = call i32 (ptr, ptr, i32, i64, i64, ptr, ...) @H5E_printf_stack(ptr noundef nonnull @.str, ptr noundef nonnull @__func__.H5G__obj_iterate, i32 noundef 655, i64 noundef %57, i64 noundef %58, ptr noundef nonnull @.str.37) #5
  br label %72

60:                                               ; preds = %25
  %.not39 = icmp eq i32 %1, 0
  br i1 %.not39, label %65, label %61

61:                                               ; preds = %60
  %62 = load i64, ptr @H5E_SYM_g, align 8, !tbaa !14
  %63 = load i64, ptr @H5E_BADVALUE_g, align 8, !tbaa !14
  %64 = call i32 (ptr, ptr, i32, i64, i64, ptr, ...) @H5E_printf_stack(ptr noundef nonnull @.str, ptr noundef nonnull @__func__.H5G__obj_iterate, i32 noundef 661, i64 noundef %62, i64 noundef %63, ptr noundef nonnull @.str.38) #5
  br label %72

65:                                               ; preds = %60
  %66 = call i32 @H5G__stab_iterate(ptr noundef nonnull %0, i32 noundef %2, i64 noundef %3, ptr noundef %4, ptr noundef %5, ptr noundef %6) #5
  %67 = icmp slt i32 %66, 0
  br i1 %67, label %68, label %72

68:                                               ; preds = %65
  %69 = load i64, ptr @H5E_SYM_g, align 8, !tbaa !14
  %70 = load i64, ptr @H5E_BADITER_g, align 8, !tbaa !14
  %71 = call i32 (ptr, ptr, i32, i64, i64, ptr, ...) @H5E_printf_stack(ptr noundef nonnull @.str, ptr noundef nonnull @__func__.H5G__obj_iterate, i32 noundef 665, i64 noundef %69, i64 noundef %70, ptr noundef nonnull @.str.39) #5
  br label %72

72:                                               ; preds = %21, %29, %38, %49, %56, %61, %68, %65, %45, %53, %7
  %.0 = phi i32 [ -1, %21 ], [ -1, %29 ], [ -1, %49 ], [ %47, %45 ], [ -1, %56 ], [ %54, %53 ], [ -1, %38 ], [ -1, %61 ], [ -1, %68 ], [ %66, %65 ], [ -1, %7 ]
  %73 = load i64, ptr %9, align 8, !tbaa !14
  call void @H5AC_tag(i64 noundef %73, ptr noundef null) #5
  call void @llvm.lifetime.end.p0(i64 8, ptr nonnull %9) #5
  call void @llvm.lifetime.end.p0(i64 48, ptr nonnull %8) #5
  ret i32 %.0
}